; Function Attrs: mustprogress nounwind uwtable
define hidden void @_ZN10BlockBegin16iterate_preorderER13GrowableArrayIbEP12BlockClosure(ptr noundef nonnull align 8 dereferenceable(408) %0, ptr noundef nonnull align 8 dereferenceable(24) %1, ptr noundef %2) local_unnamed_addr #1 align 2 {
  %4 = getelementptr inbounds i8, ptr %0, i64 104
  %5 = load i32, ptr %4, align 8
  %6 = getelementptr inbounds i8, ptr %1, i64 8
  %7 = load ptr, ptr %6, align 8
  %8 = sext i32 %5 to i64
  %9 = getelementptr inbounds i8, ptr %7, i64 %8
  %10 = load i8, ptr %9, align 1
  %11 = trunc i8 %10 to i1
  br i1 %11, label %.loopexit, label %12

12:                                               ; preds = %3
  store i8 1, ptr %9, align 1
  %13 = load ptr, ptr %2, align 8
  %14 = load ptr, ptr %13, align 8
  tail call void %14(ptr noundef nonnull align 8 dereferenceable(8) %2, ptr noundef nonnull %0) #13
  %15 = getelementptr inbounds i8, ptr %0, i64 216
  %16 = load ptr, ptr %15, align 8
  %17 = getelementptr inbounds i8, ptr %0, i64 224
  %18 = load i32, ptr %17, align 8
  %19 = icmp sgt i32 %18, 0
  br i1 %19, label %.lr.ph, label %._crit_edge

.lr.ph:                                           ; preds = %12
  %20 = getelementptr inbounds i8, ptr %0, i64 232
  %21 = zext nneg i32 %18 to i64
  br label %22

22:                                               ; preds = %.lr.ph, %22
  %indvars.iv = phi i64 [ %21, %.lr.ph ], [ %indvars.iv.next, %22 ]
  %indvars.iv.next = add nsw i64 %indvars.iv, -1
  %23 = load ptr, ptr %20, align 8
  %24 = getelementptr inbounds ptr, ptr %23, i64 %indvars.iv.next
  %25 = load ptr, ptr %24, align 8
  tail call void @_ZN10BlockBegin16iterate_preorderER13GrowableArrayIbEP12BlockClosure(ptr noundef nonnull align 8 dereferenceable(408) %25, ptr noundef nonnull align 8 dereferenceable(24) %1, ptr noundef nonnull %2)
  %26 = icmp ugt i64 %indvars.iv, 1
  br i1 %26, label %22, label %._crit_edge, !llvm.loop !20

._crit_edge:                                      ; preds = %22, %12
  %27 = getelementptr inbounds i8, ptr %16, i64 104
  %28 = load ptr, ptr %27, align 8
  %.not.i = icmp eq ptr %28, null
  br i1 %.not.i, label %.loopexit, label %_ZNK8BlockEnd13number_of_suxEv.exit

_ZNK8BlockEnd13number_of_suxEv.exit:              ; preds = %._crit_edge
  %29 = load i32, ptr %28, align 4
  %30 = icmp sgt i32 %29, 0
  br i1 %30, label %.lr.ph18.preheader, label %.loopexit

.lr.ph18.preheader:                               ; preds = %_ZNK8BlockEnd13number_of_suxEv.exit
  %31 = zext nneg i32 %29 to i64
  br label %.lr.ph18

.lr.ph18:                                         ; preds = %.lr.ph18.preheader, %.lr.ph18
  %indvars.iv20 = phi i64 [ %31, %.lr.ph18.preheader ], [ %indvars.iv.next21, %.lr.ph18 ]
  %indvars.iv.next21 = add nsw i64 %indvars.iv20, -1
  %32 = load ptr, ptr %27, align 8
  %33 = getelementptr inbounds i8, ptr %32, i64 8
  %34 = load ptr, ptr %33, align 8
  %35 = getelementptr inbounds ptr, ptr %34, i64 %indvars.iv.next21
  %36 = load ptr, ptr %35, align 8
  tail call void @_ZN10BlockBegin16iterate_preorderER13GrowableArrayIbEP12BlockClosure(ptr noundef nonnull align 8 dereferenceable(408) %36, ptr noundef nonnull align 8 dereferenceable(24) %1, ptr noundef nonnull %2)
  %37 = icmp ugt i64 %indvars.iv20, 1
  br i1 %37, label %.lr.ph18, label %.loopexit, !llvm.loop !21

.loopexit:                                        ; preds = %.lr.ph18, %._crit_edge, %_ZNK8BlockEnd13number_of_suxEv.exit, %3
  ret void
}